; Function Attrs: nounwind uwtable
define hidden ptr @lexbor_array_obj_push(ptr nocapture noundef %0) local_unnamed_addr #0 {
  %2 = getelementptr inbounds i8, ptr %0, i64 16
  %3 = load i64, ptr %2, align 8
  %4 = getelementptr inbounds i8, ptr %0, i64 8
  %5 = load i64, ptr %4, align 8
  %.not = icmp ult i64 %3, %5
  br i1 %.not, label %._crit_edge, label %6

._crit_edge:                                      ; preds = %1
  %.pre = load ptr, ptr %0, align 8
  br label %17

6:                                                ; preds = %1
  %7 = icmp ugt i64 %3, -129
  br i1 %7, label %lexbor_array_obj_expand.exit.thread, label %8

8:                                                ; preds = %6
  %9 = add nuw i64 %3, 128
  %10 = load ptr, ptr %0, align 8
  %11 = getelementptr inbounds i8, ptr %0, i64 24
  %12 = load i64, ptr %11, align 8
  %13 = shl i64 %9, 3
  %14 = mul i64 %13, %12
  %15 = tail call ptr @lexbor_realloc(ptr noundef %10, i64 noundef %14) #8
  %16 = icmp eq ptr %15, null
  br i1 %16, label %lexbor_array_obj_expand.exit.thread, label %lexbor_array_obj_expand.exit

lexbor_array_obj_expand.exit:                     ; preds = %8
  store ptr %15, ptr %0, align 8
  store i64 %9, ptr %4, align 8
  %.pre12 = load i64, ptr %2, align 8
  br label %17

17:                                               ; preds = %._crit_edge, %lexbor_array_obj_expand.exit
  %18 = phi i64 [ %3, %._crit_edge ], [ %.pre12, %lexbor_array_obj_expand.exit ]
  %19 = phi ptr [ %.pre, %._crit_edge ], [ %15, %lexbor_array_obj_expand.exit ]
  %20 = getelementptr inbounds i8, ptr %0, i64 24
  %21 = load i64, ptr %20, align 8
  %22 = mul i64 %21, %18
  %23 = getelementptr inbounds i8, ptr %19, i64 %22
  %24 = add i64 %18, 1
  store i64 %24, ptr %2, align 8
  tail call void @llvm.memset.p0.i64(ptr align 1 %23, i8 0, i64 %21, i1 false)
  br label %lexbor_array_obj_expand.exit.thread

lexbor_array_obj_expand.exit.thread:              ; preds = %8, %6, %17
  %.0 = phi ptr [ %23, %17 ], [ null, %6 ], [ null, %8 ]
  ret ptr %.0
}